target datalayout = "e-m:e-p270:32:32-p271:32:32-p272:64:64-i64:64-i128:128-f80:128-n8:16:32:64-S128"
target triple = "x86_64-pc-linux-gnu"

%"struct.vcpkg::Optional.25" = type { %"struct.vcpkg::details::OptionalStorage.26" }
%"struct.vcpkg::details::OptionalStorage.26" = type { i8, %union.anon.27 }
%union.anon.27 = type { i32 }

; Function Attrs: mustprogress nounwind uwtable
define linkonce_odr dso_local void @_ZN5vcpkg7details15OptionalStorageIiLb1EEC2EOi(ptr noundef nonnull align 4 dereferenceable(8) %0, ptr noundef nonnull align 4 dereferenceable(4) %1) unnamed_addr #0 comdat align 2 {
  %3 = alloca ptr, align 8
  %4 = alloca ptr, align 8
  store ptr %0, ptr %3, align 8
  store ptr %1, ptr %4, align 8
  %5 = load ptr, ptr %3, align 8
  %6 = getelementptr inbounds %"struct.vcpkg::details::OptionalStorage.26", ptr %5, i32 0, i32 0
  store i8 1, ptr %6, align 4
  %7 = getelementptr inbounds %"struct.vcpkg::details::OptionalStorage.26", ptr %5, i32 0, i32 1
  %8 = load ptr, ptr %4, align 8
  %9 = load i32, ptr %8, align 4
  store i32 %9, ptr %7, align 4
  ret void
}

; Function Attrs: mustprogress nounwind uwtable
define linkonce_odr dso_local void @_ZN5vcpkg7details15OptionalStorageIiLb1EEC2Ev(ptr noundef nonnull align 4 dereferenceable(8) %0) unnamed_addr #0 comdat align 2 {
  %2 = alloca ptr, align 8
  store ptr %0, ptr %2, align 8
  %3 = load ptr, ptr %2, align 8
  %4 = getelementptr inbounds %"struct.vcpkg::details::OptionalStorage.26", ptr %3, i32 0, i32 0
  store i8 0, ptr %4, align 4
  %5 = getelementptr inbounds %"struct.vcpkg::details::OptionalStorage.26", ptr %3, i32 0, i32 1
  store i8 0, ptr %5, align 4
  ret void
}

; Function Attrs: mustprogress nounwind uwtable
define linkonce_odr dso_local void @_ZN5vcpkg8OptionalIiEC2IiTnNSt9enable_ifIXaantsr3stdE9is_same_vINSt5decayIT_E4typeES1_Esr3stdE18is_constructible_vINS_7details15OptionalStorageIiLb1EEES5_EEiE4typeELi0EEEOS5_(ptr noundef nonnull align 4 dereferenceable(8) %0, ptr noundef nonnull align 4 dereferenceable(4) %1) unnamed_addr #0 comdat align 2 {
  %3 = alloca ptr, align 8
  %4 = alloca ptr, align 8
  store ptr %0, ptr %3, align 8
  store ptr %1, ptr %4, align 8
  %5 = load ptr, ptr %3, align 8
  %6 = load ptr, ptr %4, align 8
  call void @_ZN5vcpkg7details15OptionalStorageIiLb1EEC2EOi(ptr noundef nonnull align 4 dereferenceable(8) %5, ptr noundef nonnull align 4 dereferenceable(4) %6) #9
  ret void
}

; Function Attrs: mustprogress nounwind uwtable
define linkonce_odr dso_local void @_ZN5vcpkg8OptionalIiEC2ENS_7NullOptE(ptr noundef nonnull align 4 dereferenceable(8) %0) unnamed_addr #0 comdat align 2 {
  %2 = alloca ptr, align 8
  store ptr %0, ptr %2, align 8
  %3 = load ptr, ptr %2, align 8
  call void @_ZN5vcpkg7details15OptionalStorageIiLb1EEC2Ev(ptr noundef nonnull align 4 dereferenceable(8) %3) #9
  ret void
}

; Function Attrs: mustprogress nounwind uwtable
define linkonce_odr dso_local noundef i32 @_ZNSt14numeric_limitsIiE3maxEv() #0 comdat align 2 {
  ret i32 2147483647
}

; Function Attrs: mustprogress nounwind uwtable
define dso_local void @_ZNK5vcpkg4Json25NaturalNumberDeserializer13visit_integerERNS0_6ReaderEl(ptr dead_on_unwind noalias writable sret(%"struct.vcpkg::Optional.25") align 4 %0, ptr noundef nonnull align 8 dereferenceable(8) %1, ptr noundef nonnull align 8 dereferenceable(120) %2, i64 noundef %3) unnamed_addr #0 align 2 {
  %5 = alloca ptr, align 8
  %6 = alloca ptr, align 8
  %7 = alloca ptr, align 8
  %8 = alloca i64, align 8
  %9 = alloca i32, align 4
  store ptr %0, ptr %5, align 8
  store ptr %1, ptr %6, align 8
  store ptr %2, ptr %7, align 8
  store i64 %3, ptr %8, align 8
  %10 = load i64, ptr %8, align 8
  %11 = call noundef i32 @_ZNSt14numeric_limitsIiE3maxEv() #9
  %12 = sext i32 %11 to i64
  %13 = icmp sgt i64 %10, %12
  br i1 %13, label %17, label %14

14:                                               ; preds = %4
  %15 = load i64, ptr %8, align 8
  %16 = icmp slt i64 %15, 0
  br i1 %16, label %17, label %18

17:                                               ; preds = %14, %4
  call void @_ZN5vcpkg8OptionalIiEC2ENS_7NullOptE(ptr noundef nonnull align 4 dereferenceable(8) %0) #9
  br label %21

18:                                               ; preds = %14
  %19 = load i64, ptr %8, align 8
  %20 = trunc i64 %19 to i32
  store i32 %20, ptr %9, align 4
  call void @_ZN5vcpkg8OptionalIiEC2IiTnNSt9enable_ifIXaantsr3stdE9is_same_vINSt5decayIT_E4typeES1_Esr3stdE18is_constructible_vINS_7details15OptionalStorageIiLb1EEES5_EEiE4typeELi0EEEOS5_(ptr noundef nonnull align 4 dereferenceable(8) %0, ptr noundef nonnull align 4 dereferenceable(4) %9) #9
  br label %21

21:                                               ; preds = %18, %17
  ret void
}