; Function Attrs: mustprogress nofree norecurse nosync nounwind willreturn memory(argmem: write) uwtable
define dso_local void @_ZNK5vcpkg4Json25NaturalNumberDeserializer13visit_integerERNS0_6ReaderEl(ptr dead_on_unwind noalias nocapture writable writeonly sret(%"struct.vcpkg::Optional.25") align 4 %0, ptr nocapture nonnull readnone align 8 %1, ptr nocapture nonnull readnone align 8 %2, i64 noundef %3) unnamed_addr #6 align 2 {
  %or.cond = icmp ugt i64 %3, 2147483647
  br i1 %or.cond, label %5, label %7

5:                                                ; preds = %4
  %6 = getelementptr inbounds i8, ptr %0, i64 4
  store i8 0, ptr %6, align 4
  br label %10

7:                                                ; preds = %4
  %8 = trunc i64 %3 to i32
  %9 = getelementptr inbounds i8, ptr %0, i64 4
  store i32 %8, ptr %9, align 4
  br label %10

10:                                               ; preds = %7, %5
  %.sink = phi i8 [ 0, %5 ], [ 1, %7 ]
  store i8 %.sink, ptr %0, align 4
  ret void
}